
SamagoApp.elf:     file format elf32-littlearm

Sections:
Idx Name          Size      VMA       LMA       File off  Algn
  0 .text         00000da8  20014000  20014000  00004000  2**2
                  CONTENTS, ALLOC, LOAD, READONLY, CODE
  1 .relocate     00000454  20014da8  20014da8  00004da8  2**3
                  CONTENTS, ALLOC, LOAD, DATA
  2 .bss          0000005c  200151fc  200151fc  000051fc  2**2
                  ALLOC
  3 .stack        00000400  20015258  20015258  000051fc  2**0
                  ALLOC
  4 .heap         00000200  20015658  20015658  000051fc  2**0
                  ALLOC
  5 .ARM.attributes 0000002a  00000000  00000000  000051fc  2**0
                  CONTENTS, READONLY
  6 .comment      00000059  00000000  00000000  00005226  2**0
                  CONTENTS, READONLY
  7 .debug_info   00001284  00000000  00000000  0000527f  2**0
                  CONTENTS, READONLY, DEBUGGING
  8 .debug_abbrev 000002a3  00000000  00000000  00006503  2**0
                  CONTENTS, READONLY, DEBUGGING
  9 .debug_loc    00000657  00000000  00000000  000067a6  2**0
                  CONTENTS, READONLY, DEBUGGING
 10 .debug_aranges 00000098  00000000  00000000  00006e00  2**3
                  CONTENTS, READONLY, DEBUGGING
 11 .debug_ranges 000000b0  00000000  00000000  00006e98  2**0
                  CONTENTS, READONLY, DEBUGGING
 12 .debug_macro  00000ced  00000000  00000000  00006f48  2**0
                  CONTENTS, READONLY, DEBUGGING
 13 .debug_line   000003c8  00000000  00000000  00007c35  2**0
                  CONTENTS, READONLY, DEBUGGING
 14 .debug_str    0000329f  00000000  00000000  00007ffd  2**0
                  CONTENTS, READONLY, DEBUGGING
 15 .debug_frame  00000334  00000000  00000000  0000b29c  2**2
                  CONTENTS, READONLY, DEBUGGING

Disassembly of section .text:

20014000 <sp>:
20014000:	58 56 01 20                                         XV. 

20014004 <main>:
STACKINFO sp  = &_estack;

tButtonNum volatile selection = NoButton;
pet user_pet = {0, 0, 0, 0, 0, 0};

MINIOSAPP main(void){
20014004:	e92d 41f0 	stmdb	sp!, {r4, r5, r6, r7, r8, lr}
20014008:	b082      	sub	sp, #8
	
	update_stats(&user_pet);
2001400a:	4881      	ldr	r0, [pc, #516]	; (20014210 <main+0x20c>)
2001400c:	4b81      	ldr	r3, [pc, #516]	; (20014214 <main+0x210>)
2001400e:	4798      	blx	r3
	
	bool new;
	
	is_new_file(&new);
20014010:	f10d 0007 	add.w	r0, sp, #7
20014014:	4b80      	ldr	r3, [pc, #512]	; (20014218 <main+0x214>)
20014016:	4798      	blx	r3
	
	if(new)
20014018:	f89d 3007 	ldrb.w	r3, [sp, #7]
2001401c:	2b00      	cmp	r3, #0
2001401e:	f000 809d 	beq.w	2001415c <main+0x158>
	{
		 display_gotoxy(0, 0);
20014022:	2100      	movs	r1, #0
20014024:	4608      	mov	r0, r1
20014026:	4d7d      	ldr	r5, [pc, #500]	; (2001421c <main+0x218>)
20014028:	47a8      	blx	r5
		 display_puts("A new pet has been born!");
2001402a:	487d      	ldr	r0, [pc, #500]	; (20014220 <main+0x21c>)
2001402c:	4c7d      	ldr	r4, [pc, #500]	; (20014224 <main+0x220>)
2001402e:	47a0      	blx	r4
		 display_gotoxy(0, 2);
20014030:	2102      	movs	r1, #2
20014032:	2000      	movs	r0, #0
20014034:	47a8      	blx	r5
		 display_puts("Please enter a name");
20014036:	487c      	ldr	r0, [pc, #496]	; (20014228 <main+0x224>)
20014038:	47a0      	blx	r4
		 display_gotoxy(0, 3);
2001403a:	2103      	movs	r1, #3
2001403c:	2000      	movs	r0, #0
2001403e:	47a8      	blx	r5
		 display_puts("for your new pet:");
20014040:	487a      	ldr	r0, [pc, #488]	; (2001422c <main+0x228>)
20014042:	47a0      	blx	r4
		 
		 delay_ms(3000);
20014044:	f640 30b8 	movw	r0, #3000	; 0xbb8
20014048:	4b79      	ldr	r3, [pc, #484]	; (20014230 <main+0x22c>)
2001404a:	4798      	blx	r3
		 display_cls();
2001404c:	4b79      	ldr	r3, [pc, #484]	; (20014234 <main+0x230>)
2001404e:	4798      	blx	r3
		 
		 while(!make_name()) display_cls();
20014050:	4d79      	ldr	r5, [pc, #484]	; (20014238 <main+0x234>)
20014052:	4c78      	ldr	r4, [pc, #480]	; (20014234 <main+0x230>)
20014054:	47a8      	blx	r5
20014056:	2800      	cmp	r0, #0
20014058:	d036      	beq.n	200140c8 <main+0xc4>
		 
		 display_cls();
2001405a:	4f76      	ldr	r7, [pc, #472]	; (20014234 <main+0x230>)
2001405c:	47b8      	blx	r7
		 set_name(&user_pet.name);
2001405e:	4e77      	ldr	r6, [pc, #476]	; (2001423c <main+0x238>)
20014060:	4630      	mov	r0, r6
20014062:	4b77      	ldr	r3, [pc, #476]	; (20014240 <main+0x23c>)
20014064:	4798      	blx	r3
		 
		 display_gotoxy(0, 0);
20014066:	2100      	movs	r1, #0
20014068:	4608      	mov	r0, r1
2001406a:	4c6c      	ldr	r4, [pc, #432]	; (2001421c <main+0x218>)
2001406c:	47a0      	blx	r4
		 display_printf("Congratulations!");
2001406e:	4875      	ldr	r0, [pc, #468]	; (20014244 <main+0x240>)
20014070:	4d75      	ldr	r5, [pc, #468]	; (20014248 <main+0x244>)
20014072:	47a8      	blx	r5
		 display_gotoxy(0, 1);
20014074:	2101      	movs	r1, #1
20014076:	2000      	movs	r0, #0
20014078:	47a0      	blx	r4
		 display_printf("have named your pet:");
2001407a:	4874      	ldr	r0, [pc, #464]	; (2001424c <main+0x248>)
2001407c:	47a8      	blx	r5
		 display_gotoxy(0, 2);
2001407e:	2102      	movs	r1, #2
20014080:	2000      	movs	r0, #0
20014082:	47a0      	blx	r4
		 display_printf("%s", user_pet.name);
20014084:	4631      	mov	r1, r6
20014086:	4872      	ldr	r0, [pc, #456]	; (20014250 <main+0x24c>)
20014088:	47a8      	blx	r5
		 delay_ms(2500);
2001408a:	f640 10c4 	movw	r0, #2500	; 0x9c4
2001408e:	4b68      	ldr	r3, [pc, #416]	; (20014230 <main+0x22c>)
20014090:	4798      	blx	r3
		 display_cls();
20014092:	47b8      	blx	r7
		 display_gotoxy(0, 0);
20014094:	2100      	movs	r1, #0
20014096:	4608      	mov	r0, r1
20014098:	47a0      	blx	r4
		 display_printf("What breed is %s", user_pet.name);
2001409a:	4631      	mov	r1, r6
2001409c:	486d      	ldr	r0, [pc, #436]	; (20014254 <main+0x250>)
2001409e:	47a8      	blx	r5
		 display_gotoxy(0, 3);
200140a0:	2103      	movs	r1, #3
200140a2:	2000      	movs	r0, #0
200140a4:	47a0      	blx	r4
		 
		 button_read(&selection); //clear buffer
200140a6:	4c6c      	ldr	r4, [pc, #432]	; (20014258 <main+0x254>)
200140a8:	1d20      	adds	r0, r4, #4
200140aa:	4b6c      	ldr	r3, [pc, #432]	; (2001425c <main+0x258>)
200140ac:	4798      	blx	r3
		 selection = NoButton;
200140ae:	f04f 33ff 	mov.w	r3, #4294967295
200140b2:	6063      	str	r3, [r4, #4]
		 int pos = 0;
		 display_puts(breed_choices[pos]);
200140b4:	68a0      	ldr	r0, [r4, #8]
200140b6:	4b5b      	ldr	r3, [pc, #364]	; (20014224 <main+0x220>)
200140b8:	4798      	blx	r3
		 int pos = 0;
200140ba:	2400      	movs	r4, #0
		 
		 while(selection != Button2)
200140bc:	4d66      	ldr	r5, [pc, #408]	; (20014258 <main+0x254>)
		 {
			 button_read(&selection);
200140be:	f8df 819c 	ldr.w	r8, [pc, #412]	; 2001425c <main+0x258>
200140c2:	1d2f      	adds	r7, r5, #4
			 
			 switch(selection)
			 {
				case Button1: if(pos > 0) pos--; else pos = BREED_NUM; display_clr_line(3); display_puts(breed_choices[pos]);
200140c4:	4e66      	ldr	r6, [pc, #408]	; (20014260 <main+0x25c>)
		 while(selection != Button2)
200140c6:	e008      	b.n	200140da <main+0xd6>
		 while(!make_name()) display_cls();
200140c8:	47a0      	blx	r4
200140ca:	e7c3      	b.n	20014054 <main+0x50>
			 button_read(&selection);
200140cc:	4638      	mov	r0, r7
200140ce:	47c0      	blx	r8
			 switch(selection)
200140d0:	686b      	ldr	r3, [r5, #4]
200140d2:	2b01      	cmp	r3, #1
200140d4:	d029      	beq.n	2001412a <main+0x126>
200140d6:	2b03      	cmp	r3, #3
200140d8:	d033      	beq.n	20014142 <main+0x13e>
		 while(selection != Button2)
200140da:	686b      	ldr	r3, [r5, #4]
200140dc:	2b02      	cmp	r3, #2
200140de:	d1f5      	bne.n	200140cc <main+0xc8>
				case Button3: pos = (pos+1)%BREED_NUM; display_clr_line(3); display_puts(breed_choices[pos]);
				default: break; 
			 }
		 }
		 
		 user_pet.breed = pos;
200140e0:	4d4b      	ldr	r5, [pc, #300]	; (20014210 <main+0x20c>)
200140e2:	61ac      	str	r4, [r5, #24]
		 display_clr_line(3);
200140e4:	2003      	movs	r0, #3
200140e6:	4b5e      	ldr	r3, [pc, #376]	; (20014260 <main+0x25c>)
200140e8:	4798      	blx	r3
		 display_printf("%s is a %s.", user_pet.name, breed_choices[pos]);
200140ea:	4b5b      	ldr	r3, [pc, #364]	; (20014258 <main+0x254>)
200140ec:	eb03 0484 	add.w	r4, r3, r4, lsl #2
200140f0:	68a2      	ldr	r2, [r4, #8]
200140f2:	f105 0110 	add.w	r1, r5, #16
200140f6:	485b      	ldr	r0, [pc, #364]	; (20014264 <main+0x260>)
200140f8:	4b53      	ldr	r3, [pc, #332]	; (20014248 <main+0x244>)
200140fa:	4798      	blx	r3
		 delay_ms(2500);
200140fc:	f640 10c4 	movw	r0, #2500	; 0x9c4
20014100:	4b4b      	ldr	r3, [pc, #300]	; (20014230 <main+0x22c>)
20014102:	4798      	blx	r3
		 display_cls();
20014104:	4b4b      	ldr	r3, [pc, #300]	; (20014234 <main+0x230>)
20014106:	4798      	blx	r3
		 draw(user_pet.breed, 100);
20014108:	2164      	movs	r1, #100	; 0x64
2001410a:	69a8      	ldr	r0, [r5, #24]
2001410c:	4b56      	ldr	r3, [pc, #344]	; (20014268 <main+0x264>)
2001410e:	4798      	blx	r3
		display_cls();
		draw(user_pet.breed, 100);
	}
	
	int menuc = 0;
	button_read(&selection); //Clear buffer
20014110:	4856      	ldr	r0, [pc, #344]	; (2001426c <main+0x268>)
20014112:	4b52      	ldr	r3, [pc, #328]	; (2001425c <main+0x258>)
20014114:	4798      	blx	r3
	print_menu_header();
20014116:	4b56      	ldr	r3, [pc, #344]	; (20014270 <main+0x26c>)
20014118:	4798      	blx	r3
	start_time();
2001411a:	4b56      	ldr	r3, [pc, #344]	; (20014274 <main+0x270>)
2001411c:	4798      	blx	r3
	int menuc = 0;
2001411e:	2700      	movs	r7, #0

	while(true)
	{
		display_puts(main_menu[menuc]);
20014120:	4c4d      	ldr	r4, [pc, #308]	; (20014258 <main+0x254>)
20014122:	f8df 8100 	ldr.w	r8, [pc, #256]	; 20014224 <main+0x220>
		button_read(&selection);
20014126:	1d25      	adds	r5, r4, #4
20014128:	e040      	b.n	200141ac <main+0x1a8>
				case Button1: if(pos > 0) pos--; else pos = BREED_NUM; display_clr_line(3); display_puts(breed_choices[pos]);
2001412a:	2c00      	cmp	r4, #0
2001412c:	bfcc      	ite	gt
2001412e:	f104 34ff 	addgt.w	r4, r4, #4294967295
20014132:	2402      	movle	r4, #2
20014134:	2003      	movs	r0, #3
20014136:	47b0      	blx	r6
20014138:	eb05 0384 	add.w	r3, r5, r4, lsl #2
2001413c:	6898      	ldr	r0, [r3, #8]
2001413e:	4b39      	ldr	r3, [pc, #228]	; (20014224 <main+0x220>)
20014140:	4798      	blx	r3
				case Button3: pos = (pos+1)%BREED_NUM; display_clr_line(3); display_puts(breed_choices[pos]);
20014142:	3401      	adds	r4, #1
20014144:	f004 0401 	and.w	r4, r4, #1
20014148:	bf48      	it	mi
2001414a:	4264      	negmi	r4, r4
2001414c:	2003      	movs	r0, #3
2001414e:	47b0      	blx	r6
20014150:	eb05 0384 	add.w	r3, r5, r4, lsl #2
20014154:	6898      	ldr	r0, [r3, #8]
20014156:	4b33      	ldr	r3, [pc, #204]	; (20014224 <main+0x220>)
20014158:	4798      	blx	r3
2001415a:	e7be      	b.n	200140da <main+0xd6>
		read_name(&user_pet);
2001415c:	4c2c      	ldr	r4, [pc, #176]	; (20014210 <main+0x20c>)
2001415e:	4620      	mov	r0, r4
20014160:	4b45      	ldr	r3, [pc, #276]	; (20014278 <main+0x274>)
20014162:	4798      	blx	r3
		display_gotoxy(0, 0);
20014164:	2100      	movs	r1, #0
20014166:	4608      	mov	r0, r1
20014168:	4e2c      	ldr	r6, [pc, #176]	; (2001421c <main+0x218>)
2001416a:	47b0      	blx	r6
		display_printf("Welcome back!");
2001416c:	4843      	ldr	r0, [pc, #268]	; (2001427c <main+0x278>)
2001416e:	4d36      	ldr	r5, [pc, #216]	; (20014248 <main+0x244>)
20014170:	47a8      	blx	r5
		display_gotoxy(0, 3);
20014172:	2103      	movs	r1, #3
20014174:	2000      	movs	r0, #0
20014176:	47b0      	blx	r6
		display_printf("%s missed you.", user_pet.name);
20014178:	f104 0110 	add.w	r1, r4, #16
2001417c:	4840      	ldr	r0, [pc, #256]	; (20014280 <main+0x27c>)
2001417e:	47a8      	blx	r5
		delay_ms(3000);
20014180:	f640 30b8 	movw	r0, #3000	; 0xbb8
20014184:	4b2a      	ldr	r3, [pc, #168]	; (20014230 <main+0x22c>)
20014186:	4798      	blx	r3
		display_cls();
20014188:	4b2a      	ldr	r3, [pc, #168]	; (20014234 <main+0x230>)
2001418a:	4798      	blx	r3
		draw(user_pet.breed, 100);
2001418c:	2164      	movs	r1, #100	; 0x64
2001418e:	69a0      	ldr	r0, [r4, #24]
20014190:	4b35      	ldr	r3, [pc, #212]	; (20014268 <main+0x264>)
20014192:	4798      	blx	r3
20014194:	e7bc      	b.n	20014110 <main+0x10c>
		while(selection == NoButton) button_read(&selection);
		
		switch(selection)
		{
			case NoButton: /* error */ break;
			case Button0 : show_stats();
20014196:	4b3b      	ldr	r3, [pc, #236]	; (20014284 <main+0x280>)
20014198:	4798      	blx	r3
			case Button1 : if(menuc > 0) --menuc; else menuc = MENU_NUM-1; break;
2001419a:	2f00      	cmp	r7, #0
2001419c:	dd35      	ble.n	2001420a <main+0x206>
2001419e:	3f01      	subs	r7, #1
			case Button2 : open_menu(menuc); break;
			case Button3 : menuc = (menuc+1)%MENU_NUM; break;
			default      : break;
		}
		
		display_clr_line(3);
200141a0:	2003      	movs	r0, #3
200141a2:	4b2f      	ldr	r3, [pc, #188]	; (20014260 <main+0x25c>)
200141a4:	4798      	blx	r3
		update_stats(&user_pet);
200141a6:	481a      	ldr	r0, [pc, #104]	; (20014210 <main+0x20c>)
200141a8:	4b1a      	ldr	r3, [pc, #104]	; (20014214 <main+0x210>)
200141aa:	4798      	blx	r3
		display_puts(main_menu[menuc]);
200141ac:	eb04 0387 	add.w	r3, r4, r7, lsl #2
200141b0:	6918      	ldr	r0, [r3, #16]
200141b2:	47c0      	blx	r8
		button_read(&selection);
200141b4:	4628      	mov	r0, r5
200141b6:	4b29      	ldr	r3, [pc, #164]	; (2001425c <main+0x258>)
200141b8:	4798      	blx	r3
		while(selection == NoButton) button_read(&selection);
200141ba:	6863      	ldr	r3, [r4, #4]
200141bc:	f1b3 3fff 	cmp.w	r3, #4294967295
200141c0:	d106      	bne.n	200141d0 <main+0x1cc>
200141c2:	4e26      	ldr	r6, [pc, #152]	; (2001425c <main+0x258>)
200141c4:	4628      	mov	r0, r5
200141c6:	47b0      	blx	r6
200141c8:	6863      	ldr	r3, [r4, #4]
200141ca:	f1b3 3fff 	cmp.w	r3, #4294967295
200141ce:	d0f9      	beq.n	200141c4 <main+0x1c0>
		switch(selection)
200141d0:	6863      	ldr	r3, [r4, #4]
200141d2:	2b03      	cmp	r3, #3
200141d4:	d8e4      	bhi.n	200141a0 <main+0x19c>
200141d6:	a201      	add	r2, pc, #4	; (adr r2, 200141dc <main+0x1d8>)
200141d8:	f852 f023 	ldr.w	pc, [r2, r3, lsl #2]
200141dc:	20014197 	.word	0x20014197
200141e0:	2001419b 	.word	0x2001419b
200141e4:	200141ed 	.word	0x200141ed
200141e8:	200141f5 	.word	0x200141f5
			case Button2 : open_menu(menuc); break;
200141ec:	4638      	mov	r0, r7
200141ee:	4b26      	ldr	r3, [pc, #152]	; (20014288 <main+0x284>)
200141f0:	4798      	blx	r3
200141f2:	e7d5      	b.n	200141a0 <main+0x19c>
			case Button3 : menuc = (menuc+1)%MENU_NUM; break;
200141f4:	1c7b      	adds	r3, r7, #1
200141f6:	4a25      	ldr	r2, [pc, #148]	; (2001428c <main+0x288>)
200141f8:	fb82 1203 	smull	r1, r2, r2, r3
200141fc:	17df      	asrs	r7, r3, #31
200141fe:	ebc7 0762 	rsb	r7, r7, r2, asr #1
20014202:	eb07 0787 	add.w	r7, r7, r7, lsl #2
20014206:	1bdf      	subs	r7, r3, r7
20014208:	e7ca      	b.n	200141a0 <main+0x19c>
			case Button1 : if(menuc > 0) --menuc; else menuc = MENU_NUM-1; break;
2001420a:	2704      	movs	r7, #4
2001420c:	e7c8      	b.n	200141a0 <main+0x19c>
2001420e:	bf00      	nop
20014210:	20015218 	.word	0x20015218
20014214:	2001492d 	.word	0x2001492d
20014218:	2001493d 	.word	0x2001493d
2001421c:	20014921 	.word	0x20014921
20014220:	20014c84 	.word	0x20014c84
20014224:	200142fd 	.word	0x200142fd
20014228:	20014ca0 	.word	0x20014ca0
2001422c:	20014cb4 	.word	0x20014cb4
20014230:	20014955 	.word	0x20014955
20014234:	20014919 	.word	0x20014919
20014238:	20014481 	.word	0x20014481
2001423c:	20015228 	.word	0x20015228
20014240:	20014931 	.word	0x20014931
20014244:	20014cc8 	.word	0x20014cc8
20014248:	200143a9 	.word	0x200143a9
2001424c:	20014cdc 	.word	0x20014cdc
20014250:	20014cf4 	.word	0x20014cf4
20014254:	20014cf8 	.word	0x20014cf8
20014258:	20014da8 	.word	0x20014da8
2001425c:	2001490d 	.word	0x2001490d
20014260:	200148dd 	.word	0x200148dd
20014264:	20014d0c 	.word	0x20014d0c
20014268:	20014959 	.word	0x20014959
2001426c:	20014dac 	.word	0x20014dac
20014270:	2001462d 	.word	0x2001462d
20014274:	2001494d 	.word	0x2001494d
20014278:	20014935 	.word	0x20014935
2001427c:	20014d18 	.word	0x20014d18
20014280:	20014d28 	.word	0x20014d28
20014284:	2001467d 	.word	0x2001467d
20014288:	20014759 	.word	0x20014759
2001428c:	66666667 	.word	0x66666667

20014290 <__do_global_dtors_aux>:
20014290:	b510      	push	{r4, lr}
20014292:	4c05      	ldr	r4, [pc, #20]	; (200142a8 <__do_global_dtors_aux+0x18>)
20014294:	7823      	ldrb	r3, [r4, #0]
20014296:	b933      	cbnz	r3, 200142a6 <__do_global_dtors_aux+0x16>
20014298:	4b04      	ldr	r3, [pc, #16]	; (200142ac <__do_global_dtors_aux+0x1c>)
2001429a:	b113      	cbz	r3, 200142a2 <__do_global_dtors_aux+0x12>
2001429c:	4804      	ldr	r0, [pc, #16]	; (200142b0 <__do_global_dtors_aux+0x20>)
2001429e:	f3af 8000 	nop.w
200142a2:	2301      	movs	r3, #1
200142a4:	7023      	strb	r3, [r4, #0]
200142a6:	bd10      	pop	{r4, pc}
200142a8:	200151fc 	.word	0x200151fc
200142ac:	00000000 	.word	0x00000000
200142b0:	20014da8 	.word	0x20014da8

200142b4 <frame_dummy>:
200142b4:	4b0c      	ldr	r3, [pc, #48]	; (200142e8 <frame_dummy+0x34>)
200142b6:	b143      	cbz	r3, 200142ca <frame_dummy+0x16>
200142b8:	480c      	ldr	r0, [pc, #48]	; (200142ec <frame_dummy+0x38>)
200142ba:	490d      	ldr	r1, [pc, #52]	; (200142f0 <frame_dummy+0x3c>)
200142bc:	b510      	push	{r4, lr}
200142be:	f3af 8000 	nop.w
200142c2:	480c      	ldr	r0, [pc, #48]	; (200142f4 <frame_dummy+0x40>)
200142c4:	6803      	ldr	r3, [r0, #0]
200142c6:	b923      	cbnz	r3, 200142d2 <frame_dummy+0x1e>
200142c8:	bd10      	pop	{r4, pc}
200142ca:	480a      	ldr	r0, [pc, #40]	; (200142f4 <frame_dummy+0x40>)
200142cc:	6803      	ldr	r3, [r0, #0]
200142ce:	b933      	cbnz	r3, 200142de <frame_dummy+0x2a>
200142d0:	4770      	bx	lr
200142d2:	4b09      	ldr	r3, [pc, #36]	; (200142f8 <frame_dummy+0x44>)
200142d4:	2b00      	cmp	r3, #0
200142d6:	d0f7      	beq.n	200142c8 <frame_dummy+0x14>
200142d8:	e8bd 4010 	ldmia.w	sp!, {r4, lr}
200142dc:	4718      	bx	r3
200142de:	4b06      	ldr	r3, [pc, #24]	; (200142f8 <frame_dummy+0x44>)
200142e0:	2b00      	cmp	r3, #0
200142e2:	d0f5      	beq.n	200142d0 <frame_dummy+0x1c>
200142e4:	4718      	bx	r3
200142e6:	bf00      	nop
200142e8:	00000000 	.word	0x00000000
200142ec:	20014da8 	.word	0x20014da8
200142f0:	20015200 	.word	0x20015200
200142f4:	20014da8 	.word	0x20014da8
200142f8:	00000000 	.word	0x00000000

200142fc <display_puts>:
void display_putc(int c);
void display_gotoxy(uint32_t, uint32_t);
void display_cls(void);

void display_puts(uint8_t* string)
{
200142fc:	b538      	push	{r3, r4, r5, lr}
	uint8_t c;
	
	while(c = *string++) display_putc(c);
200142fe:	1c44      	adds	r4, r0, #1
20014300:	7800      	ldrb	r0, [r0, #0]
20014302:	b128      	cbz	r0, 20014310 <display_puts+0x14>
20014304:	4d03      	ldr	r5, [pc, #12]	; (20014314 <display_puts+0x18>)
20014306:	47a8      	blx	r5
20014308:	f814 0b01 	ldrb.w	r0, [r4], #1
2001430c:	2800      	cmp	r0, #0
2001430e:	d1fa      	bne.n	20014306 <display_puts+0xa>
20014310:	bd38      	pop	{r3, r4, r5, pc}
20014312:	bf00      	nop
20014314:	2001491d 	.word	0x2001491d

20014318 <log_10>:

int log_10(int num)
{
	int i = 0;
	
	while(num > 9)
20014318:	2809      	cmp	r0, #9
2001431a:	dd0d      	ble.n	20014338 <log_10+0x20>
{
2001431c:	b500      	push	{lr}
2001431e:	4603      	mov	r3, r0
	while(num > 9)
20014320:	2000      	movs	r0, #0
	{
		num /= 10;
20014322:	4906      	ldr	r1, [pc, #24]	; (2001433c <log_10+0x24>)
20014324:	fb81 e203 	smull	lr, r2, r1, r3
20014328:	17db      	asrs	r3, r3, #31
2001432a:	ebc3 03a2 	rsb	r3, r3, r2, asr #2
		i++;
2001432e:	3001      	adds	r0, #1
	while(num > 9)
20014330:	2b09      	cmp	r3, #9
20014332:	dcf7      	bgt.n	20014324 <log_10+0xc>
20014334:	f85d fb04 	ldr.w	pc, [sp], #4
	int i = 0;
20014338:	2000      	movs	r0, #0
	}
	
	return i;
2001433a:	4770      	bx	lr
2001433c:	66666667 	.word	0x66666667

20014340 <display_printn>:
}

void display_printn(int val)
{
20014340:	b5f8      	push	{r3, r4, r5, r6, r7, lr}
20014342:	af00      	add	r7, sp, #0
20014344:	4604      	mov	r4, r0
	int lim = log_10(val);
20014346:	4b16      	ldr	r3, [pc, #88]	; (200143a0 <display_printn+0x60>)
20014348:	4798      	blx	r3
	
	char string[lim+1];
2001434a:	f100 0c01 	add.w	ip, r0, #1
2001434e:	f100 0308 	add.w	r3, r0, #8
20014352:	f023 0307 	bic.w	r3, r3, #7
20014356:	ebad 0d03 	sub.w	sp, sp, r3
2001435a:	466e      	mov	r6, sp
	int power = 1;
	int digit;
	
	for(int i = lim; i >= 0; i--)
2001435c:	2800      	cmp	r0, #0
2001435e:	db12      	blt.n	20014386 <display_printn+0x46>
20014360:	1835      	adds	r5, r6, r0
20014362:	f10d 3eff 	add.w	lr, sp, #4294967295
20014366:	2101      	movs	r1, #1
	{
		digit = val%(power*10);
20014368:	eb01 0281 	add.w	r2, r1, r1, lsl #2
2001436c:	0052      	lsls	r2, r2, #1
2001436e:	fb94 f3f2 	sdiv	r3, r4, r2
20014372:	fb02 4313 	mls	r3, r2, r3, r4
		digit /= power;
20014376:	fb93 f3f1 	sdiv	r3, r3, r1
		digit += 48;
2001437a:	3330      	adds	r3, #48	; 0x30
		
		string[i] = digit;
2001437c:	f805 3901 	strb.w	r3, [r5], #-1
		
		power *= 10;
20014380:	4611      	mov	r1, r2
	for(int i = lim; i >= 0; i--)
20014382:	4575      	cmp	r5, lr
20014384:	d1f0      	bne.n	20014368 <display_printn+0x28>
	}
	
	for(int i=0; i < lim+1; i++) display_putc(string[i]);
20014386:	f1bc 0f00 	cmp.w	ip, #0
2001438a:	dd07      	ble.n	2001439c <display_printn+0x5c>
2001438c:	1e74      	subs	r4, r6, #1
2001438e:	1835      	adds	r5, r6, r0
20014390:	4e04      	ldr	r6, [pc, #16]	; (200143a4 <display_printn+0x64>)
20014392:	f814 0f01 	ldrb.w	r0, [r4, #1]!
20014396:	47b0      	blx	r6
20014398:	42a5      	cmp	r5, r4
2001439a:	d1fa      	bne.n	20014392 <display_printn+0x52>
}
2001439c:	46bd      	mov	sp, r7
2001439e:	bdf8      	pop	{r3, r4, r5, r6, r7, pc}
200143a0:	20014319 	.word	0x20014319
200143a4:	2001491d 	.word	0x2001491d

200143a8 <display_printf>:

/* Adapted from vishal's example: https://stackoverflow.com/questions/1735236/how-to-write-my-own-printf-in-c on November 8, 2018, 2:13 P.M. */
void display_printf(const char *format, ...)
{
200143a8:	b40f      	push	{r0, r1, r2, r3}
200143aa:	e92d 41f0 	stmdb	sp!, {r4, r5, r6, r7, r8, lr}
200143ae:	b082      	sub	sp, #8
200143b0:	ab08      	add	r3, sp, #32
200143b2:	f853 4b04 	ldr.w	r4, [r3], #4
	char *ind;
	
	va_list valist;
	
	va_start(valist, format);
200143b6:	9301      	str	r3, [sp, #4]
	
	for(ind = format; *ind != '\0'; ind++)
200143b8:	7823      	ldrb	r3, [r4, #0]
200143ba:	b33b      	cbz	r3, 2001440c <display_printf+0x64>
	{
		while(*ind != '%' && *ind != '\0')
		{
			display_putc(*ind);
200143bc:	4d17      	ldr	r5, [pc, #92]	; (2001441c <display_printf+0x74>)
		
		switch(*ind)
		{
			case 'c' : display_putc(va_arg(valist, char)); break;
			case 'd' : display_printn(va_arg(valist, int)); break;
			case 's' : display_puts(va_arg(valist, uint8_t*)); break;
200143be:	f8df 8064 	ldr.w	r8, [pc, #100]	; 20014424 <display_printf+0x7c>
			case 'd' : display_printn(va_arg(valist, int)); break;
200143c2:	4f17      	ldr	r7, [pc, #92]	; (20014420 <display_printf+0x78>)
200143c4:	e017      	b.n	200143f6 <display_printf+0x4e>
200143c6:	deff      	udf	#255	; 0xff
200143c8:	9b01      	ldr	r3, [sp, #4]
200143ca:	1d1a      	adds	r2, r3, #4
200143cc:	9201      	str	r2, [sp, #4]
200143ce:	6818      	ldr	r0, [r3, #0]
200143d0:	47b8      	blx	r7
200143d2:	e00d      	b.n	200143f0 <display_printf+0x48>
			case 's' : display_puts(va_arg(valist, uint8_t*)); break;
200143d4:	9b01      	ldr	r3, [sp, #4]
200143d6:	1d1a      	adds	r2, r3, #4
200143d8:	9201      	str	r2, [sp, #4]
200143da:	6818      	ldr	r0, [r3, #0]
200143dc:	47c0      	blx	r8
200143de:	e007      	b.n	200143f0 <display_printf+0x48>
			ind++;
200143e0:	4626      	mov	r6, r4
		switch(*ind)
200143e2:	7873      	ldrb	r3, [r6, #1]
200143e4:	2b64      	cmp	r3, #100	; 0x64
200143e6:	d0ef      	beq.n	200143c8 <display_printf+0x20>
200143e8:	2b73      	cmp	r3, #115	; 0x73
200143ea:	d0f3      	beq.n	200143d4 <display_printf+0x2c>
200143ec:	2b63      	cmp	r3, #99	; 0x63
200143ee:	d0ea      	beq.n	200143c6 <display_printf+0x1e>
	for(ind = format; *ind != '\0'; ind++)
200143f0:	1cb4      	adds	r4, r6, #2
200143f2:	78b3      	ldrb	r3, [r6, #2]
200143f4:	b153      	cbz	r3, 2001440c <display_printf+0x64>
		while(*ind != '%' && *ind != '\0')
200143f6:	7820      	ldrb	r0, [r4, #0]
200143f8:	2825      	cmp	r0, #37	; 0x25
200143fa:	d00c      	beq.n	20014416 <display_printf+0x6e>
200143fc:	b130      	cbz	r0, 2001440c <display_printf+0x64>
			display_putc(*ind);
200143fe:	47a8      	blx	r5
		while(*ind != '%' && *ind != '\0')
20014400:	f814 0f01 	ldrb.w	r0, [r4, #1]!
20014404:	2825      	cmp	r0, #37	; 0x25
20014406:	d0eb      	beq.n	200143e0 <display_printf+0x38>
20014408:	2800      	cmp	r0, #0
2001440a:	d1f8      	bne.n	200143fe <display_printf+0x56>
		}
	}
	
	va_end(valist);
}
2001440c:	b002      	add	sp, #8
2001440e:	e8bd 41f0 	ldmia.w	sp!, {r4, r5, r6, r7, r8, lr}
20014412:	b004      	add	sp, #16
20014414:	4770      	bx	lr
		while(*ind != '%' && *ind != '\0')
20014416:	4626      	mov	r6, r4
20014418:	e7e3      	b.n	200143e2 <display_printf+0x3a>
2001441a:	bf00      	nop
2001441c:	2001491d 	.word	0x2001491d
20014420:	20014341 	.word	0x20014341
20014424:	200142fd 	.word	0x200142fd

20014428 <decrement_cursor>:
	return false;
}

void decrement_cursor(void)
{
	if(cursor[0] == ' ') cursor[0] = 'z'; //Switch to lower case
20014428:	4b09      	ldr	r3, [pc, #36]	; (20014450 <decrement_cursor+0x28>)
2001442a:	781b      	ldrb	r3, [r3, #0]
2001442c:	2b20      	cmp	r3, #32
2001442e:	d007      	beq.n	20014440 <decrement_cursor+0x18>
	
	else
	{
		cursor[0]--;
20014430:	3b01      	subs	r3, #1
20014432:	b2db      	uxtb	r3, r3
		
		if(cursor[0] < 'A') cursor[0] = ' '; //inserts empty space if user decrements below 'A'
20014434:	2b40      	cmp	r3, #64	; 0x40
20014436:	d807      	bhi.n	20014448 <decrement_cursor+0x20>
20014438:	2220      	movs	r2, #32
2001443a:	4b05      	ldr	r3, [pc, #20]	; (20014450 <decrement_cursor+0x28>)
2001443c:	701a      	strb	r2, [r3, #0]
2001443e:	4770      	bx	lr
	if(cursor[0] == ' ') cursor[0] = 'z'; //Switch to lower case
20014440:	227a      	movs	r2, #122	; 0x7a
20014442:	4b03      	ldr	r3, [pc, #12]	; (20014450 <decrement_cursor+0x28>)
20014444:	701a      	strb	r2, [r3, #0]
20014446:	4770      	bx	lr
		cursor[0]--;
20014448:	4a01      	ldr	r2, [pc, #4]	; (20014450 <decrement_cursor+0x28>)
2001444a:	7013      	strb	r3, [r2, #0]
2001444c:	4770      	bx	lr
2001444e:	bf00      	nop
20014450:	20014da8 	.word	0x20014da8

20014454 <increment_cursor>:
	}
}

void increment_cursor(void)
{
	if(cursor[0] == ' ') cursor[0] = 'A'; //Switch to upper case
20014454:	4b09      	ldr	r3, [pc, #36]	; (2001447c <increment_cursor+0x28>)
20014456:	781b      	ldrb	r3, [r3, #0]
20014458:	2b20      	cmp	r3, #32
2001445a:	d007      	beq.n	2001446c <increment_cursor+0x18>
	else
	{
		cursor[0]++;
2001445c:	3301      	adds	r3, #1
2001445e:	b2db      	uxtb	r3, r3
		
		if(cursor[0] > 'z') cursor[0] = ' '; //inserts empty space if user increments above 'z'
20014460:	2b7a      	cmp	r3, #122	; 0x7a
20014462:	d907      	bls.n	20014474 <increment_cursor+0x20>
20014464:	2220      	movs	r2, #32
20014466:	4b05      	ldr	r3, [pc, #20]	; (2001447c <increment_cursor+0x28>)
20014468:	701a      	strb	r2, [r3, #0]
2001446a:	4770      	bx	lr
	if(cursor[0] == ' ') cursor[0] = 'A'; //Switch to upper case
2001446c:	2241      	movs	r2, #65	; 0x41
2001446e:	4b03      	ldr	r3, [pc, #12]	; (2001447c <increment_cursor+0x28>)
20014470:	701a      	strb	r2, [r3, #0]
20014472:	4770      	bx	lr
		cursor[0]++;
20014474:	4a01      	ldr	r2, [pc, #4]	; (2001447c <increment_cursor+0x28>)
20014476:	7013      	strb	r3, [r2, #0]
20014478:	4770      	bx	lr
2001447a:	bf00      	nop
2001447c:	20014da8 	.word	0x20014da8

20014480 <make_name>:
{
20014480:	e92d 4ff0 	stmdb	sp!, {r4, r5, r6, r7, r8, r9, sl, fp, lr}
20014484:	b083      	sub	sp, #12
	display_gotoxy(0, 0);
20014486:	2100      	movs	r1, #0
20014488:	4608      	mov	r0, r1
2001448a:	4c56      	ldr	r4, [pc, #344]	; (200145e4 <make_name+0x164>)
2001448c:	47a0      	blx	r4
	display_puts("Buttons 1 & 3: scroll");
2001448e:	4856      	ldr	r0, [pc, #344]	; (200145e8 <make_name+0x168>)
20014490:	4d56      	ldr	r5, [pc, #344]	; (200145ec <make_name+0x16c>)
20014492:	47a8      	blx	r5
	display_gotoxy(0, 1);
20014494:	2101      	movs	r1, #1
20014496:	2000      	movs	r0, #0
20014498:	47a0      	blx	r4
	display_puts("Button 2: enter");
2001449a:	4855      	ldr	r0, [pc, #340]	; (200145f0 <make_name+0x170>)
2001449c:	47a8      	blx	r5
	display_gotoxy(0, 2);
2001449e:	2102      	movs	r1, #2
200144a0:	2000      	movs	r0, #0
200144a2:	47a0      	blx	r4
	display_puts("Button 0: confirm");
200144a4:	4853      	ldr	r0, [pc, #332]	; (200145f4 <make_name+0x174>)
200144a6:	47a8      	blx	r5
	char buffer[8] = {0};
200144a8:	2700      	movs	r7, #0
200144aa:	9700      	str	r7, [sp, #0]
200144ac:	9701      	str	r7, [sp, #4]
		display_gotoxy(0, 3);
200144ae:	2103      	movs	r1, #3
200144b0:	4638      	mov	r0, r7
200144b2:	47a0      	blx	r4
	uint8_t pos = 0;
200144b4:	46b8      	mov	r8, r7
		for(int i=0; i<pos; i++) display_putc(buffer[i]);
200144b6:	46bb      	mov	fp, r7
		display_putc(cursor[count/500]);
200144b8:	f8df 9150 	ldr.w	r9, [pc, #336]	; 2001460c <make_name+0x18c>
200144bc:	f8df a168 	ldr.w	sl, [pc, #360]	; 20014628 <make_name+0x1a8>
200144c0:	e026      	b.n	20014510 <make_name+0x90>
				case Button1 : decrement_cursor(); break;
200144c2:	4b4d      	ldr	r3, [pc, #308]	; (200145f8 <make_name+0x178>)
200144c4:	4798      	blx	r3
		if(selection == Button0) {display_putc(cursor[0]); break;}
200144c6:	f8d9 3004 	ldr.w	r3, [r9, #4]
200144ca:	2b00      	cmp	r3, #0
200144cc:	d04c      	beq.n	20014568 <make_name+0xe8>
	for(int count = 0; pos < 7; count++)
200144ce:	1c7b      	adds	r3, r7, #1
200144d0:	f1b8 0f06 	cmp.w	r8, #6
200144d4:	d84c      	bhi.n	20014570 <make_name+0xf0>
		count = count%1000;
200144d6:	fb8a 1203 	smull	r1, r2, sl, r3
200144da:	17df      	asrs	r7, r3, #31
200144dc:	ebc7 17a2 	rsb	r7, r7, r2, asr #6
200144e0:	f44f 727a 	mov.w	r2, #1000	; 0x3e8
200144e4:	fb02 3717 	mls	r7, r2, r7, r3
		display_gotoxy(0, 3);
200144e8:	2103      	movs	r1, #3
200144ea:	2000      	movs	r0, #0
200144ec:	4b3d      	ldr	r3, [pc, #244]	; (200145e4 <make_name+0x164>)
200144ee:	4798      	blx	r3
		for(int i=0; i<pos; i++) display_putc(buffer[i]);
200144f0:	46c3      	mov	fp, r8
200144f2:	f1b8 0f00 	cmp.w	r8, #0
200144f6:	d00b      	beq.n	20014510 <make_name+0x90>
200144f8:	f10d 34ff 	add.w	r4, sp, #4294967295
200144fc:	ab02      	add	r3, sp, #8
200144fe:	eb03 0508 	add.w	r5, r3, r8
20014502:	3d09      	subs	r5, #9
20014504:	4e3d      	ldr	r6, [pc, #244]	; (200145fc <make_name+0x17c>)
20014506:	f814 0f01 	ldrb.w	r0, [r4, #1]!
2001450a:	47b0      	blx	r6
2001450c:	42ac      	cmp	r4, r5
2001450e:	d1fa      	bne.n	20014506 <make_name+0x86>
		display_putc(cursor[count/500]);
20014510:	fb8a 2307 	smull	r2, r3, sl, r7
20014514:	17fa      	asrs	r2, r7, #31
20014516:	ebc2 1363 	rsb	r3, r2, r3, asr #5
2001451a:	f819 0003 	ldrb.w	r0, [r9, r3]
2001451e:	4b37      	ldr	r3, [pc, #220]	; (200145fc <make_name+0x17c>)
20014520:	4798      	blx	r3
		button_read(&selection);
20014522:	4837      	ldr	r0, [pc, #220]	; (20014600 <make_name+0x180>)
20014524:	4b37      	ldr	r3, [pc, #220]	; (20014604 <make_name+0x184>)
20014526:	4798      	blx	r3
		if(selection != NoButton)
20014528:	f8d9 3004 	ldr.w	r3, [r9, #4]
2001452c:	f1b3 3fff 	cmp.w	r3, #4294967295
20014530:	d0c9      	beq.n	200144c6 <make_name+0x46>
			switch(selection)
20014532:	f8d9 3004 	ldr.w	r3, [r9, #4]
20014536:	2b02      	cmp	r3, #2
20014538:	d004      	beq.n	20014544 <make_name+0xc4>
2001453a:	2b03      	cmp	r3, #3
2001453c:	d011      	beq.n	20014562 <make_name+0xe2>
2001453e:	2b01      	cmp	r3, #1
20014540:	d1c1      	bne.n	200144c6 <make_name+0x46>
20014542:	e7be      	b.n	200144c2 <make_name+0x42>
				case Button2 : display_putc(cursor[0]); buffer[pos++] = cursor[0]; break;
20014544:	f899 0000 	ldrb.w	r0, [r9]
20014548:	4b2c      	ldr	r3, [pc, #176]	; (200145fc <make_name+0x17c>)
2001454a:	4798      	blx	r3
2001454c:	f108 0801 	add.w	r8, r8, #1
20014550:	fa5f f888 	uxtb.w	r8, r8
20014554:	ab02      	add	r3, sp, #8
20014556:	449b      	add	fp, r3
20014558:	f899 3000 	ldrb.w	r3, [r9]
2001455c:	f80b 3c08 	strb.w	r3, [fp, #-8]
20014560:	e7b1      	b.n	200144c6 <make_name+0x46>
				case Button3 : increment_cursor(); break;
20014562:	4b29      	ldr	r3, [pc, #164]	; (20014608 <make_name+0x188>)
20014564:	4798      	blx	r3
20014566:	e7ae      	b.n	200144c6 <make_name+0x46>
		if(selection == Button0) {display_putc(cursor[0]); break;}
20014568:	4b28      	ldr	r3, [pc, #160]	; (2001460c <make_name+0x18c>)
2001456a:	7818      	ldrb	r0, [r3, #0]
2001456c:	4b23      	ldr	r3, [pc, #140]	; (200145fc <make_name+0x17c>)
2001456e:	4798      	blx	r3
20014570:	f10d 33ff 	add.w	r3, sp, #4294967295
20014574:	4a26      	ldr	r2, [pc, #152]	; (20014610 <make_name+0x190>)
20014576:	f10d 0007 	add.w	r0, sp, #7
	for(int i=0; i<8; i++) user_pet.name[i] = buffer[i];
2001457a:	f813 1f01 	ldrb.w	r1, [r3, #1]!
2001457e:	f802 1b01 	strb.w	r1, [r2], #1
20014582:	4298      	cmp	r0, r3
20014584:	d1f9      	bne.n	2001457a <make_name+0xfa>
	display_cls();
20014586:	4b23      	ldr	r3, [pc, #140]	; (20014614 <make_name+0x194>)
20014588:	4798      	blx	r3
	display_gotoxy(0, 0);
2001458a:	2100      	movs	r1, #0
2001458c:	4608      	mov	r0, r1
2001458e:	4c15      	ldr	r4, [pc, #84]	; (200145e4 <make_name+0x164>)
20014590:	47a0      	blx	r4
	display_printf("Name: %s", user_pet.name);
20014592:	491f      	ldr	r1, [pc, #124]	; (20014610 <make_name+0x190>)
20014594:	4820      	ldr	r0, [pc, #128]	; (20014618 <make_name+0x198>)
20014596:	4b21      	ldr	r3, [pc, #132]	; (2001461c <make_name+0x19c>)
20014598:	4798      	blx	r3
	display_gotoxy(0, 1);
2001459a:	2101      	movs	r1, #1
2001459c:	2000      	movs	r0, #0
2001459e:	47a0      	blx	r4
	display_puts("Is this ok?");
200145a0:	481f      	ldr	r0, [pc, #124]	; (20014620 <make_name+0x1a0>)
200145a2:	4d12      	ldr	r5, [pc, #72]	; (200145ec <make_name+0x16c>)
200145a4:	47a8      	blx	r5
	display_gotoxy(0, 3);
200145a6:	2103      	movs	r1, #3
200145a8:	2000      	movs	r0, #0
200145aa:	47a0      	blx	r4
	display_puts("Button 1: ok Else: cancel");
200145ac:	481d      	ldr	r0, [pc, #116]	; (20014624 <make_name+0x1a4>)
200145ae:	47a8      	blx	r5
	button_read(&selection);
200145b0:	4c16      	ldr	r4, [pc, #88]	; (2001460c <make_name+0x18c>)
200145b2:	1d20      	adds	r0, r4, #4
200145b4:	4b13      	ldr	r3, [pc, #76]	; (20014604 <make_name+0x184>)
200145b6:	4798      	blx	r3
	while(selection == NoButton) button_read(&selection);
200145b8:	6863      	ldr	r3, [r4, #4]
200145ba:	f1b3 3fff 	cmp.w	r3, #4294967295
200145be:	d107      	bne.n	200145d0 <make_name+0x150>
200145c0:	1d26      	adds	r6, r4, #4
200145c2:	4d10      	ldr	r5, [pc, #64]	; (20014604 <make_name+0x184>)
200145c4:	4630      	mov	r0, r6
200145c6:	47a8      	blx	r5
200145c8:	6863      	ldr	r3, [r4, #4]
200145ca:	f1b3 3fff 	cmp.w	r3, #4294967295
200145ce:	d0f9      	beq.n	200145c4 <make_name+0x144>
	if(selection == Button1) return true;
200145d0:	4b0e      	ldr	r3, [pc, #56]	; (2001460c <make_name+0x18c>)
200145d2:	6858      	ldr	r0, [r3, #4]
}
200145d4:	2801      	cmp	r0, #1
200145d6:	bf14      	ite	ne
200145d8:	2000      	movne	r0, #0
200145da:	2001      	moveq	r0, #1
200145dc:	b003      	add	sp, #12
200145de:	e8bd 8ff0 	ldmia.w	sp!, {r4, r5, r6, r7, r8, r9, sl, fp, pc}
200145e2:	bf00      	nop
200145e4:	20014921 	.word	0x20014921
200145e8:	20014a7c 	.word	0x20014a7c
200145ec:	200142fd 	.word	0x200142fd
200145f0:	20014a94 	.word	0x20014a94
200145f4:	20014aa4 	.word	0x20014aa4
200145f8:	20014429 	.word	0x20014429
200145fc:	2001491d 	.word	0x2001491d
20014600:	20014dac 	.word	0x20014dac
20014604:	2001490d 	.word	0x2001490d
20014608:	20014455 	.word	0x20014455
2001460c:	20014da8 	.word	0x20014da8
20014610:	20015228 	.word	0x20015228
20014614:	20014919 	.word	0x20014919
20014618:	20014ab8 	.word	0x20014ab8
2001461c:	200143a9 	.word	0x200143a9
20014620:	20014ac4 	.word	0x20014ac4
20014624:	20014ad0 	.word	0x20014ad0
20014628:	10624dd3 	.word	0x10624dd3

2001462c <print_menu_header>:
	start_time();
	print_menu_header();
}

void print_menu_header()
{
2001462c:	b538      	push	{r3, r4, r5, lr}
	display_cls();
2001462e:	4b0b      	ldr	r3, [pc, #44]	; (2001465c <print_menu_header+0x30>)
20014630:	4798      	blx	r3
	display_gotoxy(0, 0);
20014632:	2100      	movs	r1, #0
20014634:	4608      	mov	r0, r1
20014636:	4c0a      	ldr	r4, [pc, #40]	; (20014660 <print_menu_header+0x34>)
20014638:	47a0      	blx	r4
	display_printf("What would you and"); 
2001463a:	480a      	ldr	r0, [pc, #40]	; (20014664 <print_menu_header+0x38>)
2001463c:	4d0a      	ldr	r5, [pc, #40]	; (20014668 <print_menu_header+0x3c>)
2001463e:	47a8      	blx	r5
	display_gotoxy(0, 1);
20014640:	2101      	movs	r1, #1
20014642:	2000      	movs	r0, #0
20014644:	47a0      	blx	r4
	display_printf("%s like to do?", user_pet.name);
20014646:	4909      	ldr	r1, [pc, #36]	; (2001466c <print_menu_header+0x40>)
20014648:	4809      	ldr	r0, [pc, #36]	; (20014670 <print_menu_header+0x44>)
2001464a:	47a8      	blx	r5
	display_gotoxy(0, 3);
2001464c:	2103      	movs	r1, #3
2001464e:	2000      	movs	r0, #0
20014650:	47a0      	blx	r4
	button_read(&selection);
20014652:	4808      	ldr	r0, [pc, #32]	; (20014674 <print_menu_header+0x48>)
20014654:	4b08      	ldr	r3, [pc, #32]	; (20014678 <print_menu_header+0x4c>)
20014656:	4798      	blx	r3
20014658:	bd38      	pop	{r3, r4, r5, pc}
2001465a:	bf00      	nop
2001465c:	20014919 	.word	0x20014919
20014660:	20014921 	.word	0x20014921
20014664:	20014aec 	.word	0x20014aec
20014668:	200143a9 	.word	0x200143a9
2001466c:	20015228 	.word	0x20015228
20014670:	20014b00 	.word	0x20014b00
20014674:	20014dac 	.word	0x20014dac
20014678:	2001490d 	.word	0x2001490d

2001467c <show_stats>:
{
2001467c:	e92d 43f8 	stmdb	sp!, {r3, r4, r5, r6, r7, r8, r9, lr}
	update_stats(&user_pet);
20014680:	4e24      	ldr	r6, [pc, #144]	; (20014714 <show_stats+0x98>)
20014682:	4630      	mov	r0, r6
20014684:	4b24      	ldr	r3, [pc, #144]	; (20014718 <show_stats+0x9c>)
20014686:	4798      	blx	r3
	display_cls();
20014688:	f8df 90c4 	ldr.w	r9, [pc, #196]	; 20014750 <show_stats+0xd4>
2001468c:	47c8      	blx	r9
	display_gotoxy(0, 0);
2001468e:	2100      	movs	r1, #0
20014690:	4608      	mov	r0, r1
20014692:	4c22      	ldr	r4, [pc, #136]	; (2001471c <show_stats+0xa0>)
20014694:	47a0      	blx	r4
	display_printf("Once finished viewing,");
20014696:	4822      	ldr	r0, [pc, #136]	; (20014720 <show_stats+0xa4>)
20014698:	4d22      	ldr	r5, [pc, #136]	; (20014724 <show_stats+0xa8>)
2001469a:	47a8      	blx	r5
	display_gotoxy(0, 1);
2001469c:	2101      	movs	r1, #1
2001469e:	2000      	movs	r0, #0
200146a0:	47a0      	blx	r4
	display_puts("press any button to continue");
200146a2:	4821      	ldr	r0, [pc, #132]	; (20014728 <show_stats+0xac>)
200146a4:	4b21      	ldr	r3, [pc, #132]	; (2001472c <show_stats+0xb0>)
200146a6:	4798      	blx	r3
	delay_ms(2500);
200146a8:	f640 10c4 	movw	r0, #2500	; 0x9c4
200146ac:	4b20      	ldr	r3, [pc, #128]	; (20014730 <show_stats+0xb4>)
200146ae:	4798      	blx	r3
	button_read(&selection); //clear input in case user accidentally presses button here
200146b0:	f8df 80a0 	ldr.w	r8, [pc, #160]	; 20014754 <show_stats+0xd8>
200146b4:	4640      	mov	r0, r8
200146b6:	4f1f      	ldr	r7, [pc, #124]	; (20014734 <show_stats+0xb8>)
200146b8:	47b8      	blx	r7
	display_cls();
200146ba:	47c8      	blx	r9
	display_gotoxy(0, 0);
200146bc:	2100      	movs	r1, #0
200146be:	4608      	mov	r0, r1
200146c0:	47a0      	blx	r4
	display_printf("Hunger:    %d", MAX_STAT-user_pet.satiety);
200146c2:	6831      	ldr	r1, [r6, #0]
200146c4:	f1c1 0164 	rsb	r1, r1, #100	; 0x64
200146c8:	481b      	ldr	r0, [pc, #108]	; (20014738 <show_stats+0xbc>)
200146ca:	47a8      	blx	r5
	display_gotoxy(0, 1);
200146cc:	2101      	movs	r1, #1
200146ce:	2000      	movs	r0, #0
200146d0:	47a0      	blx	r4
	display_printf("Energy:    %d", user_pet.energy);
200146d2:	6871      	ldr	r1, [r6, #4]
200146d4:	4819      	ldr	r0, [pc, #100]	; (2001473c <show_stats+0xc0>)
200146d6:	47a8      	blx	r5
	display_gotoxy(0, 2);
200146d8:	2102      	movs	r1, #2
200146da:	2000      	movs	r0, #0
200146dc:	47a0      	blx	r4
	display_printf("Happiness: %d", user_pet.happiness);
200146de:	68b1      	ldr	r1, [r6, #8]
200146e0:	4817      	ldr	r0, [pc, #92]	; (20014740 <show_stats+0xc4>)
200146e2:	47a8      	blx	r5
	display_gotoxy(0, 3);
200146e4:	2103      	movs	r1, #3
200146e6:	2000      	movs	r0, #0
200146e8:	47a0      	blx	r4
	display_printf("Age :      %d", user_pet.age);
200146ea:	68f1      	ldr	r1, [r6, #12]
200146ec:	4815      	ldr	r0, [pc, #84]	; (20014744 <show_stats+0xc8>)
200146ee:	47a8      	blx	r5
	button_read(&selection); //clear once more
200146f0:	4640      	mov	r0, r8
200146f2:	47b8      	blx	r7
	do button_read(&selection);
200146f4:	f1a8 0404 	sub.w	r4, r8, #4
200146f8:	1d26      	adds	r6, r4, #4
200146fa:	463d      	mov	r5, r7
200146fc:	4630      	mov	r0, r6
200146fe:	47a8      	blx	r5
	while (selection == NoButton);
20014700:	6863      	ldr	r3, [r4, #4]
20014702:	f1b3 3fff 	cmp.w	r3, #4294967295
20014706:	d0f9      	beq.n	200146fc <show_stats+0x80>
	start_time();
20014708:	4b0f      	ldr	r3, [pc, #60]	; (20014748 <show_stats+0xcc>)
2001470a:	4798      	blx	r3
	print_menu_header();
2001470c:	4b0f      	ldr	r3, [pc, #60]	; (2001474c <show_stats+0xd0>)
2001470e:	4798      	blx	r3
20014710:	e8bd 83f8 	ldmia.w	sp!, {r3, r4, r5, r6, r7, r8, r9, pc}
20014714:	20015218 	.word	0x20015218
20014718:	2001492d 	.word	0x2001492d
2001471c:	20014921 	.word	0x20014921
20014720:	20014b10 	.word	0x20014b10
20014724:	200143a9 	.word	0x200143a9
20014728:	20014b28 	.word	0x20014b28
2001472c:	200142fd 	.word	0x200142fd
20014730:	20014955 	.word	0x20014955
20014734:	2001490d 	.word	0x2001490d
20014738:	20014b48 	.word	0x20014b48
2001473c:	20014b58 	.word	0x20014b58
20014740:	20014b68 	.word	0x20014b68
20014744:	20014b78 	.word	0x20014b78
20014748:	2001494d 	.word	0x2001494d
2001474c:	2001462d 	.word	0x2001462d
20014750:	20014919 	.word	0x20014919
20014754:	20014dac 	.word	0x20014dac

20014758 <open_menu>:
{
20014758:	e92d 41f0 	stmdb	sp!, {r4, r5, r6, r7, r8, lr}
	switch(op)
2001475c:	2804      	cmp	r0, #4
2001475e:	f200 8085 	bhi.w	2001486c <open_menu+0x114>
20014762:	e8df f000 	tbb	[pc, r0]
20014766:	2a03      	.short	0x2a03
20014768:	6e4c      	.short	0x6e4c
2001476a:	72          	.byte	0x72
2001476b:	00          	.byte	0x00
		case 0: display_cls(); 
2001476c:	f8df 8154 	ldr.w	r8, [pc, #340]	; 200148c4 <open_menu+0x16c>
20014770:	47c0      	blx	r8
			display_gotoxy(0, 0); 
20014772:	2100      	movs	r1, #0
20014774:	4608      	mov	r0, r1
20014776:	4f42      	ldr	r7, [pc, #264]	; (20014880 <open_menu+0x128>)
20014778:	47b8      	blx	r7
			display_printf("You give %s some pet food", user_pet.name);
2001477a:	4c42      	ldr	r4, [pc, #264]	; (20014884 <open_menu+0x12c>)
2001477c:	f104 0610 	add.w	r6, r4, #16
20014780:	4631      	mov	r1, r6
20014782:	4841      	ldr	r0, [pc, #260]	; (20014888 <open_menu+0x130>)
20014784:	4d41      	ldr	r5, [pc, #260]	; (2001488c <open_menu+0x134>)
20014786:	47a8      	blx	r5
			delay_ms(2000);
20014788:	f44f 60fa 	mov.w	r0, #2000	; 0x7d0
2001478c:	4b40      	ldr	r3, [pc, #256]	; (20014890 <open_menu+0x138>)
2001478e:	4798      	blx	r3
			draw(user_pet.breed, 100);
20014790:	2164      	movs	r1, #100	; 0x64
20014792:	69a0      	ldr	r0, [r4, #24]
20014794:	4b3f      	ldr	r3, [pc, #252]	; (20014894 <open_menu+0x13c>)
20014796:	4798      	blx	r3
			feed( &user_pet );
20014798:	4620      	mov	r0, r4
2001479a:	4b3f      	ldr	r3, [pc, #252]	; (20014898 <open_menu+0x140>)
2001479c:	4798      	blx	r3
			display_cls();
2001479e:	47c0      	blx	r8
			display_gotoxy(0, 0);
200147a0:	2100      	movs	r1, #0
200147a2:	4608      	mov	r0, r1
200147a4:	47b8      	blx	r7
			display_printf("%s's hunger is now %d", user_pet.name, MAX_STAT-user_pet.satiety); //Hunger is the inverse of satiety.
200147a6:	6822      	ldr	r2, [r4, #0]
200147a8:	f1c2 0264 	rsb	r2, r2, #100	; 0x64
200147ac:	4631      	mov	r1, r6
200147ae:	483b      	ldr	r0, [pc, #236]	; (2001489c <open_menu+0x144>)
200147b0:	47a8      	blx	r5
	print_menu_header();
200147b2:	4b3b      	ldr	r3, [pc, #236]	; (200148a0 <open_menu+0x148>)
200147b4:	4798      	blx	r3
200147b6:	e8bd 81f0 	ldmia.w	sp!, {r4, r5, r6, r7, r8, pc}
		case 1: display_cls(); 
200147ba:	f8df 8108 	ldr.w	r8, [pc, #264]	; 200148c4 <open_menu+0x16c>
200147be:	47c0      	blx	r8
			display_gotoxy(0, 0); 
200147c0:	2100      	movs	r1, #0
200147c2:	4608      	mov	r0, r1
200147c4:	4f2e      	ldr	r7, [pc, #184]	; (20014880 <open_menu+0x128>)
200147c6:	47b8      	blx	r7
			display_printf("You play with %s for a while", user_pet.name);
200147c8:	4c2e      	ldr	r4, [pc, #184]	; (20014884 <open_menu+0x12c>)
200147ca:	f104 0610 	add.w	r6, r4, #16
200147ce:	4631      	mov	r1, r6
200147d0:	4834      	ldr	r0, [pc, #208]	; (200148a4 <open_menu+0x14c>)
200147d2:	4d2e      	ldr	r5, [pc, #184]	; (2001488c <open_menu+0x134>)
200147d4:	47a8      	blx	r5
			delay_ms(2000);
200147d6:	f44f 60fa 	mov.w	r0, #2000	; 0x7d0
200147da:	4b2d      	ldr	r3, [pc, #180]	; (20014890 <open_menu+0x138>)
200147dc:	4798      	blx	r3
			draw(user_pet.breed, 100);
200147de:	2164      	movs	r1, #100	; 0x64
200147e0:	69a0      	ldr	r0, [r4, #24]
200147e2:	4b2c      	ldr	r3, [pc, #176]	; (20014894 <open_menu+0x13c>)
200147e4:	4798      	blx	r3
			play( &user_pet );
200147e6:	4620      	mov	r0, r4
200147e8:	4b2f      	ldr	r3, [pc, #188]	; (200148a8 <open_menu+0x150>)
200147ea:	4798      	blx	r3
			display_cls();
200147ec:	47c0      	blx	r8
			display_gotoxy(0, 0);
200147ee:	2100      	movs	r1, #0
200147f0:	4608      	mov	r0, r1
200147f2:	47b8      	blx	r7
			display_printf("%s's happiness is now %d", user_pet.name, user_pet.happiness);
200147f4:	68a2      	ldr	r2, [r4, #8]
200147f6:	4631      	mov	r1, r6
200147f8:	482c      	ldr	r0, [pc, #176]	; (200148ac <open_menu+0x154>)
200147fa:	47a8      	blx	r5
			break;
200147fc:	e7d9      	b.n	200147b2 <open_menu+0x5a>
		case 2: display_cls(); 
200147fe:	f8df 80c4 	ldr.w	r8, [pc, #196]	; 200148c4 <open_menu+0x16c>
20014802:	47c0      	blx	r8
			display_gotoxy(0, 0); 
20014804:	2100      	movs	r1, #0
20014806:	4608      	mov	r0, r1
20014808:	4f1d      	ldr	r7, [pc, #116]	; (20014880 <open_menu+0x128>)
2001480a:	47b8      	blx	r7
			display_printf("%s takes a nap...", user_pet.name);
2001480c:	4c1d      	ldr	r4, [pc, #116]	; (20014884 <open_menu+0x12c>)
2001480e:	f104 0610 	add.w	r6, r4, #16
20014812:	4631      	mov	r1, r6
20014814:	4826      	ldr	r0, [pc, #152]	; (200148b0 <open_menu+0x158>)
20014816:	4d1d      	ldr	r5, [pc, #116]	; (2001488c <open_menu+0x134>)
20014818:	47a8      	blx	r5
			delay_ms(2000);
2001481a:	f44f 60fa 	mov.w	r0, #2000	; 0x7d0
2001481e:	4b1c      	ldr	r3, [pc, #112]	; (20014890 <open_menu+0x138>)
20014820:	4798      	blx	r3
			draw(user_pet.breed, 100);
20014822:	2164      	movs	r1, #100	; 0x64
20014824:	69a0      	ldr	r0, [r4, #24]
20014826:	4b1b      	ldr	r3, [pc, #108]	; (20014894 <open_menu+0x13c>)
20014828:	4798      	blx	r3
			rest( &user_pet );
2001482a:	4620      	mov	r0, r4
2001482c:	4b21      	ldr	r3, [pc, #132]	; (200148b4 <open_menu+0x15c>)
2001482e:	4798      	blx	r3
			display_cls();
20014830:	47c0      	blx	r8
			display_gotoxy(0, 0);
20014832:	2100      	movs	r1, #0
20014834:	4608      	mov	r0, r1
20014836:	47b8      	blx	r7
			display_printf("%s's energy is now %d", user_pet.name, user_pet.energy);
20014838:	6862      	ldr	r2, [r4, #4]
2001483a:	4631      	mov	r1, r6
2001483c:	481e      	ldr	r0, [pc, #120]	; (200148b8 <open_menu+0x160>)
2001483e:	47a8      	blx	r5
			break;
20014840:	e7b7      	b.n	200147b2 <open_menu+0x5a>
		case 3: show_stats(); 
20014842:	4b1e      	ldr	r3, [pc, #120]	; (200148bc <open_menu+0x164>)
20014844:	4798      	blx	r3
			return;
20014846:	e8bd 81f0 	ldmia.w	sp!, {r4, r5, r6, r7, r8, pc}
		case 4: stop_time();
2001484a:	4b1d      	ldr	r3, [pc, #116]	; (200148c0 <open_menu+0x168>)
2001484c:	4798      	blx	r3
			display_cls();
2001484e:	4b1d      	ldr	r3, [pc, #116]	; (200148c4 <open_menu+0x16c>)
20014850:	4798      	blx	r3
			save_file( &user_pet );
20014852:	480c      	ldr	r0, [pc, #48]	; (20014884 <open_menu+0x12c>)
20014854:	4b1c      	ldr	r3, [pc, #112]	; (200148c8 <open_menu+0x170>)
20014856:	4798      	blx	r3
			display_gotoxy(0, 0);
20014858:	2100      	movs	r1, #0
2001485a:	4608      	mov	r0, r1
2001485c:	4b08      	ldr	r3, [pc, #32]	; (20014880 <open_menu+0x128>)
2001485e:	4798      	blx	r3
			display_puts("Your file has been saved");
20014860:	481a      	ldr	r0, [pc, #104]	; (200148cc <open_menu+0x174>)
20014862:	4b1b      	ldr	r3, [pc, #108]	; (200148d0 <open_menu+0x178>)
20014864:	4798      	blx	r3
			start_time();
20014866:	4b1b      	ldr	r3, [pc, #108]	; (200148d4 <open_menu+0x17c>)
20014868:	4798      	blx	r3
			break;
2001486a:	e7a2      	b.n	200147b2 <open_menu+0x5a>
		default: display_cls();
2001486c:	4b15      	ldr	r3, [pc, #84]	; (200148c4 <open_menu+0x16c>)
2001486e:	4798      	blx	r3
			 display_gotoxy(0, 0);
20014870:	2100      	movs	r1, #0
20014872:	4608      	mov	r0, r1
20014874:	4b02      	ldr	r3, [pc, #8]	; (20014880 <open_menu+0x128>)
20014876:	4798      	blx	r3
			 display_puts("Error: menu selection out of bounds");
20014878:	4817      	ldr	r0, [pc, #92]	; (200148d8 <open_menu+0x180>)
2001487a:	4b15      	ldr	r3, [pc, #84]	; (200148d0 <open_menu+0x178>)
2001487c:	4798      	blx	r3
			 break;
2001487e:	e798      	b.n	200147b2 <open_menu+0x5a>
20014880:	20014921 	.word	0x20014921
20014884:	20015218 	.word	0x20015218
20014888:	20014b88 	.word	0x20014b88
2001488c:	200143a9 	.word	0x200143a9
20014890:	20014955 	.word	0x20014955
20014894:	20014959 	.word	0x20014959
20014898:	20014941 	.word	0x20014941
2001489c:	20014ba4 	.word	0x20014ba4
200148a0:	2001462d 	.word	0x2001462d
200148a4:	20014bbc 	.word	0x20014bbc
200148a8:	20014949 	.word	0x20014949
200148ac:	20014bdc 	.word	0x20014bdc
200148b0:	20014bf8 	.word	0x20014bf8
200148b4:	20014945 	.word	0x20014945
200148b8:	20014c0c 	.word	0x20014c0c
200148bc:	2001467d 	.word	0x2001467d
200148c0:	20014951 	.word	0x20014951
200148c4:	20014919 	.word	0x20014919
200148c8:	20014939 	.word	0x20014939
200148cc:	20014c24 	.word	0x20014c24
200148d0:	200142fd 	.word	0x200142fd
200148d4:	2001494d 	.word	0x2001494d
200148d8:	20014c40 	.word	0x20014c40

200148dc <display_clr_line>:
}

void display_clr_line(int line)
{
200148dc:	b538      	push	{r3, r4, r5, lr}
200148de:	4605      	mov	r5, r0
	display_gotoxy(0, line);
200148e0:	4601      	mov	r1, r0
200148e2:	2000      	movs	r0, #0
200148e4:	4c04      	ldr	r4, [pc, #16]	; (200148f8 <display_clr_line+0x1c>)
200148e6:	47a0      	blx	r4
	display_puts("                              ");
200148e8:	4804      	ldr	r0, [pc, #16]	; (200148fc <display_clr_line+0x20>)
200148ea:	4b05      	ldr	r3, [pc, #20]	; (20014900 <display_clr_line+0x24>)
200148ec:	4798      	blx	r3
	display_gotoxy(0, line);
200148ee:	4629      	mov	r1, r5
200148f0:	2000      	movs	r0, #0
200148f2:	47a0      	blx	r4
200148f4:	bd38      	pop	{r3, r4, r5, pc}
200148f6:	bf00      	nop
200148f8:	20014921 	.word	0x20014921
200148fc:	20014c64 	.word	0x20014c64
20014900:	200142fd 	.word	0x200142fd

20014904 <led_set>:
.equ	SVCDraw,            59

.thumb_func 
.global led_set
led_set:
	svc SVCLedSet
20014904:	df00      	svc	0
	bx lr
20014906:	4770      	bx	lr

20014908 <led_read>:

.thumb_func
.global led_read
led_read:
	svc SVCLedRead
20014908:	df01      	svc	1
	bx lr
2001490a:	4770      	bx	lr

2001490c <button_read>:

.thumb_func
.global button_read
button_read:
	svc SVCButtonRead
2001490c:	df04      	svc	4
	bx lr
2001490e:	4770      	bx	lr

20014910 <clock_read>:

.thumb_func
.global clock_read
clock_read:
	svc SVCClockRead
20014910:	df05      	svc	5
	bx lr
20014912:	4770      	bx	lr

20014914 <clock_write>:

.thumb_func
.global clock_write
clock_write:
	svc SVCClockWrite
20014914:	df06      	svc	6
	bx lr
20014916:	4770      	bx	lr

20014918 <display_cls>:

.thumb_func
.global display_cls
display_cls:
	svc SVCDisplayCls
20014918:	df0e      	svc	14
	bx lr
2001491a:	4770      	bx	lr

2001491c <display_putc>:

.thumb_func
.global display_putc
display_putc:
	svc SVCDisplayPutc
2001491c:	df0f      	svc	15
	bx lr
2001491e:	4770      	bx	lr

20014920 <display_gotoxy>:

.thumb_func
.global display_gotoxy
display_gotoxy:
	svc SVCDisplayGotoxy
20014920:	df10      	svc	16
	bx lr
20014922:	4770      	bx	lr

20014924 <display_numlines>:

.thumb_func
.global display_numlines
display_numlines:
	svc SVCDisplayNumLines
20014924:	df11      	svc	17
	bx lr
20014926:	4770      	bx	lr

20014928 <display_current_line>:

.thumb_func
.global display_current_line
display_current_line:
	svc SVCDisplayCurrLine
20014928:	df12      	svc	18
	bx lr
2001492a:	4770      	bx	lr

2001492c <update_stats>:

.thumb_func
.global update_stats
update_stats:
	svc SVCUpdateStats
2001492c:	df32      	svc	50	; 0x32
	bx lr
2001492e:	4770      	bx	lr

20014930 <set_name>:

.thumb_func
.global set_name
set_name:
	svc SVCSetName
20014930:	df33      	svc	51	; 0x33
	bx lr
20014932:	4770      	bx	lr

20014934 <read_name>:

.thumb_func
.global read_name
read_name:
	svc SVCReadName
20014934:	df34      	svc	52	; 0x34
	bx lr
20014936:	4770      	bx	lr

20014938 <save_file>:

.thumb_func
.global save_file
save_file:
	svc SVCSaveFile
20014938:	df38      	svc	56	; 0x38
	bx lr
2001493a:	4770      	bx	lr

2001493c <is_new_file>:

.thumb_func
.global is_new_file
is_new_file:
	svc SVCIsNewFile
2001493c:	df39      	svc	57	; 0x39
	bx lr
2001493e:	4770      	bx	lr

20014940 <feed>:

.thumb_func
.global feed
feed:
	svc SVCFeed
20014940:	df35      	svc	53	; 0x35
	bx lr
20014942:	4770      	bx	lr

20014944 <rest>:

.thumb_func
.global rest
rest:
	svc SVCRest
20014944:	df36      	svc	54	; 0x36
	bx lr
20014946:	4770      	bx	lr

20014948 <play>:

.thumb_func
.global play
play:
	svc SVCPlay
20014948:	df37      	svc	55	; 0x37
	bx lr
2001494a:	4770      	bx	lr

2001494c <start_time>:

.thumb_func
.global start_time
start_time:
	svc SVCStartTime
2001494c:	df13      	svc	19
	bx lr
2001494e:	4770      	bx	lr

20014950 <stop_time>:

.thumb_func
.global stop_time
stop_time:
	svc SVCStopTime
20014950:	df15      	svc	21
	bx lr
20014952:	4770      	bx	lr

20014954 <delay_ms>:

.thumb_func
.global delay_ms
delay_ms:
	svc SVCDelayMs
20014954:	df3a      	svc	58	; 0x3a
	bx lr
20014956:	4770      	bx	lr

20014958 <draw>:

.thumb_func
.global draw
draw:
	svc SVCDraw
20014958:	df3b      	svc	59	; 0x3b
	bx lr
2001495a:	4770      	bx	lr

2001495c <register_fini>:
2001495c:	4b02      	ldr	r3, [pc, #8]	; (20014968 <register_fini+0xc>)
2001495e:	b113      	cbz	r3, 20014966 <register_fini+0xa>
20014960:	4802      	ldr	r0, [pc, #8]	; (2001496c <register_fini+0x10>)
20014962:	f000 b805 	b.w	20014970 <atexit>
20014966:	4770      	bx	lr
20014968:	00000000 	.word	0x00000000
2001496c:	2001497d 	.word	0x2001497d

20014970 <atexit>:
20014970:	2300      	movs	r3, #0
20014972:	4601      	mov	r1, r0
20014974:	461a      	mov	r2, r3
20014976:	4618      	mov	r0, r3
20014978:	f000 b81e 	b.w	200149b8 <__register_exitproc>

2001497c <__libc_fini_array>:
2001497c:	b538      	push	{r3, r4, r5, lr}
2001497e:	4c0a      	ldr	r4, [pc, #40]	; (200149a8 <__libc_fini_array+0x2c>)
20014980:	4d0a      	ldr	r5, [pc, #40]	; (200149ac <__libc_fini_array+0x30>)
20014982:	1b64      	subs	r4, r4, r5
20014984:	10a4      	asrs	r4, r4, #2
20014986:	d00a      	beq.n	2001499e <__libc_fini_array+0x22>
20014988:	f104 4380 	add.w	r3, r4, #1073741824	; 0x40000000
2001498c:	3b01      	subs	r3, #1
2001498e:	eb05 0583 	add.w	r5, r5, r3, lsl #2
20014992:	3c01      	subs	r4, #1
20014994:	f855 3904 	ldr.w	r3, [r5], #-4
20014998:	4798      	blx	r3
2001499a:	2c00      	cmp	r4, #0
2001499c:	d1f9      	bne.n	20014992 <__libc_fini_array+0x16>
2001499e:	e8bd 4038 	ldmia.w	sp!, {r3, r4, r5, lr}
200149a2:	f000 b9f9 	b.w	20014d98 <_fini>
200149a6:	bf00      	nop
200149a8:	20014da8 	.word	0x20014da8
200149ac:	20014da4 	.word	0x20014da4

200149b0 <__retarget_lock_acquire_recursive>:
200149b0:	4770      	bx	lr
200149b2:	bf00      	nop

200149b4 <__retarget_lock_release_recursive>:
200149b4:	4770      	bx	lr
200149b6:	bf00      	nop

200149b8 <__register_exitproc>:
200149b8:	e92d 43f8 	stmdb	sp!, {r3, r4, r5, r6, r7, r8, r9, lr}
200149bc:	4d2c      	ldr	r5, [pc, #176]	; (20014a70 <__register_exitproc+0xb8>)
200149be:	4606      	mov	r6, r0
200149c0:	6828      	ldr	r0, [r5, #0]
200149c2:	4698      	mov	r8, r3
200149c4:	460f      	mov	r7, r1
200149c6:	4691      	mov	r9, r2
200149c8:	f7ff fff2 	bl	200149b0 <__retarget_lock_acquire_recursive>
200149cc:	4b29      	ldr	r3, [pc, #164]	; (20014a74 <__register_exitproc+0xbc>)
200149ce:	681c      	ldr	r4, [r3, #0]
200149d0:	f8d4 3148 	ldr.w	r3, [r4, #328]	; 0x148
200149d4:	2b00      	cmp	r3, #0
200149d6:	d03e      	beq.n	20014a56 <__register_exitproc+0x9e>
200149d8:	685a      	ldr	r2, [r3, #4]
200149da:	2a1f      	cmp	r2, #31
200149dc:	dc1c      	bgt.n	20014a18 <__register_exitproc+0x60>
200149de:	f102 0e01 	add.w	lr, r2, #1
200149e2:	b176      	cbz	r6, 20014a02 <__register_exitproc+0x4a>
200149e4:	eb03 0182 	add.w	r1, r3, r2, lsl #2
200149e8:	2401      	movs	r4, #1
200149ea:	f8c1 9088 	str.w	r9, [r1, #136]	; 0x88
200149ee:	f8d3 0188 	ldr.w	r0, [r3, #392]	; 0x188
200149f2:	4094      	lsls	r4, r2
200149f4:	4320      	orrs	r0, r4
200149f6:	2e02      	cmp	r6, #2
200149f8:	f8c3 0188 	str.w	r0, [r3, #392]	; 0x188
200149fc:	f8c1 8108 	str.w	r8, [r1, #264]	; 0x108
20014a00:	d023      	beq.n	20014a4a <__register_exitproc+0x92>
20014a02:	3202      	adds	r2, #2
20014a04:	f8c3 e004 	str.w	lr, [r3, #4]
20014a08:	6828      	ldr	r0, [r5, #0]
20014a0a:	f843 7022 	str.w	r7, [r3, r2, lsl #2]
20014a0e:	f7ff ffd1 	bl	200149b4 <__retarget_lock_release_recursive>
20014a12:	2000      	movs	r0, #0
20014a14:	e8bd 83f8 	ldmia.w	sp!, {r3, r4, r5, r6, r7, r8, r9, pc}
20014a18:	4b17      	ldr	r3, [pc, #92]	; (20014a78 <__register_exitproc+0xc0>)
20014a1a:	b30b      	cbz	r3, 20014a60 <__register_exitproc+0xa8>
20014a1c:	f44f 70c8 	mov.w	r0, #400	; 0x190
20014a20:	f3af 8000 	nop.w
20014a24:	4603      	mov	r3, r0
20014a26:	b1d8      	cbz	r0, 20014a60 <__register_exitproc+0xa8>
20014a28:	f8d4 2148 	ldr.w	r2, [r4, #328]	; 0x148
20014a2c:	6002      	str	r2, [r0, #0]
20014a2e:	2100      	movs	r1, #0
20014a30:	6041      	str	r1, [r0, #4]
20014a32:	460a      	mov	r2, r1
20014a34:	f8c4 0148 	str.w	r0, [r4, #328]	; 0x148
20014a38:	f04f 0e01 	mov.w	lr, #1
20014a3c:	f8c0 1188 	str.w	r1, [r0, #392]	; 0x188
20014a40:	f8c0 118c 	str.w	r1, [r0, #396]	; 0x18c
20014a44:	2e00      	cmp	r6, #0
20014a46:	d0dc      	beq.n	20014a02 <__register_exitproc+0x4a>
20014a48:	e7cc      	b.n	200149e4 <__register_exitproc+0x2c>
20014a4a:	f8d3 118c 	ldr.w	r1, [r3, #396]	; 0x18c
20014a4e:	430c      	orrs	r4, r1
20014a50:	f8c3 418c 	str.w	r4, [r3, #396]	; 0x18c
20014a54:	e7d5      	b.n	20014a02 <__register_exitproc+0x4a>
20014a56:	f504 73a6 	add.w	r3, r4, #332	; 0x14c
20014a5a:	f8c4 3148 	str.w	r3, [r4, #328]	; 0x148
20014a5e:	e7bb      	b.n	200149d8 <__register_exitproc+0x20>
20014a60:	6828      	ldr	r0, [r5, #0]
20014a62:	f7ff ffa7 	bl	200149b4 <__retarget_lock_release_recursive>
20014a66:	f04f 30ff 	mov.w	r0, #4294967295
20014a6a:	e8bd 83f8 	ldmia.w	sp!, {r3, r4, r5, r6, r7, r8, r9, pc}
20014a6e:	bf00      	nop
20014a70:	200151f8 	.word	0x200151f8
20014a74:	20014d80 	.word	0x20014d80
20014a78:	00000000 	.word	0x00000000
20014a7c:	74747542 	.word	0x74747542
20014a80:	20736e6f 	.word	0x20736e6f
20014a84:	20262031 	.word	0x20262031
20014a88:	73203a33 	.word	0x73203a33
20014a8c:	6c6f7263 	.word	0x6c6f7263
20014a90:	0000006c 	.word	0x0000006c
20014a94:	74747542 	.word	0x74747542
20014a98:	32206e6f 	.word	0x32206e6f
20014a9c:	6e65203a 	.word	0x6e65203a
20014aa0:	00726574 	.word	0x00726574
20014aa4:	74747542 	.word	0x74747542
20014aa8:	30206e6f 	.word	0x30206e6f
20014aac:	6f63203a 	.word	0x6f63203a
20014ab0:	7269666e 	.word	0x7269666e
20014ab4:	0000006d 	.word	0x0000006d
20014ab8:	656d614e 	.word	0x656d614e
20014abc:	7325203a 	.word	0x7325203a
20014ac0:	00000000 	.word	0x00000000
20014ac4:	74207349 	.word	0x74207349
20014ac8:	20736968 	.word	0x20736968
20014acc:	003f6b6f 	.word	0x003f6b6f
20014ad0:	74747542 	.word	0x74747542
20014ad4:	31206e6f 	.word	0x31206e6f
20014ad8:	6b6f203a 	.word	0x6b6f203a
20014adc:	736c4520 	.word	0x736c4520
20014ae0:	63203a65 	.word	0x63203a65
20014ae4:	65636e61 	.word	0x65636e61
20014ae8:	0000006c 	.word	0x0000006c
20014aec:	74616857 	.word	0x74616857
20014af0:	756f7720 	.word	0x756f7720
20014af4:	7920646c 	.word	0x7920646c
20014af8:	6120756f 	.word	0x6120756f
20014afc:	0000646e 	.word	0x0000646e
20014b00:	6c207325 	.word	0x6c207325
20014b04:	20656b69 	.word	0x20656b69
20014b08:	64206f74 	.word	0x64206f74
20014b0c:	00003f6f 	.word	0x00003f6f
20014b10:	65636e4f 	.word	0x65636e4f
20014b14:	6e696620 	.word	0x6e696620
20014b18:	65687369 	.word	0x65687369
20014b1c:	69762064 	.word	0x69762064
20014b20:	6e697765 	.word	0x6e697765
20014b24:	00002c67 	.word	0x00002c67
20014b28:	73657270 	.word	0x73657270
20014b2c:	6e612073 	.word	0x6e612073
20014b30:	75622079 	.word	0x75622079
20014b34:	6e6f7474 	.word	0x6e6f7474
20014b38:	206f7420 	.word	0x206f7420
20014b3c:	746e6f63 	.word	0x746e6f63
20014b40:	65756e69 	.word	0x65756e69
20014b44:	00000000 	.word	0x00000000
20014b48:	676e7548 	.word	0x676e7548
20014b4c:	203a7265 	.word	0x203a7265
20014b50:	25202020 	.word	0x25202020
20014b54:	00000064 	.word	0x00000064
20014b58:	72656e45 	.word	0x72656e45
20014b5c:	203a7967 	.word	0x203a7967
20014b60:	25202020 	.word	0x25202020
20014b64:	00000064 	.word	0x00000064
20014b68:	70706148 	.word	0x70706148
20014b6c:	73656e69 	.word	0x73656e69
20014b70:	25203a73 	.word	0x25203a73
20014b74:	00000064 	.word	0x00000064
20014b78:	20656741 	.word	0x20656741
20014b7c:	2020203a 	.word	0x2020203a
20014b80:	25202020 	.word	0x25202020
20014b84:	00000064 	.word	0x00000064
20014b88:	20756f59 	.word	0x20756f59
20014b8c:	65766967 	.word	0x65766967
20014b90:	20732520 	.word	0x20732520
20014b94:	656d6f73 	.word	0x656d6f73
20014b98:	74657020 	.word	0x74657020
20014b9c:	6f6f6620 	.word	0x6f6f6620
20014ba0:	00000064 	.word	0x00000064
20014ba4:	73277325 	.word	0x73277325
20014ba8:	6e756820 	.word	0x6e756820
20014bac:	20726567 	.word	0x20726567
20014bb0:	6e207369 	.word	0x6e207369
20014bb4:	2520776f 	.word	0x2520776f
20014bb8:	00000064 	.word	0x00000064
20014bbc:	20756f59 	.word	0x20756f59
20014bc0:	79616c70 	.word	0x79616c70
20014bc4:	74697720 	.word	0x74697720
20014bc8:	73252068 	.word	0x73252068
20014bcc:	726f6620 	.word	0x726f6620
20014bd0:	77206120 	.word	0x77206120
20014bd4:	656c6968 	.word	0x656c6968
20014bd8:	00000000 	.word	0x00000000
20014bdc:	73277325 	.word	0x73277325
20014be0:	70616820 	.word	0x70616820
20014be4:	656e6970 	.word	0x656e6970
20014be8:	69207373 	.word	0x69207373
20014bec:	6f6e2073 	.word	0x6f6e2073
20014bf0:	64252077 	.word	0x64252077
20014bf4:	00000000 	.word	0x00000000
20014bf8:	74207325 	.word	0x74207325
20014bfc:	73656b61 	.word	0x73656b61
20014c00:	6e206120 	.word	0x6e206120
20014c04:	2e2e7061 	.word	0x2e2e7061
20014c08:	0000002e 	.word	0x0000002e
20014c0c:	73277325 	.word	0x73277325
20014c10:	656e6520 	.word	0x656e6520
20014c14:	20796772 	.word	0x20796772
20014c18:	6e207369 	.word	0x6e207369
20014c1c:	2520776f 	.word	0x2520776f
20014c20:	00000064 	.word	0x00000064
20014c24:	72756f59 	.word	0x72756f59
20014c28:	6c696620 	.word	0x6c696620
20014c2c:	61682065 	.word	0x61682065
20014c30:	65622073 	.word	0x65622073
20014c34:	73206e65 	.word	0x73206e65
20014c38:	64657661 	.word	0x64657661
20014c3c:	00000000 	.word	0x00000000
20014c40:	6f727245 	.word	0x6f727245
20014c44:	6d203a72 	.word	0x6d203a72
20014c48:	20756e65 	.word	0x20756e65
20014c4c:	656c6573 	.word	0x656c6573
20014c50:	6f697463 	.word	0x6f697463
20014c54:	756f206e 	.word	0x756f206e
20014c58:	666f2074 	.word	0x666f2074
20014c5c:	756f6220 	.word	0x756f6220
20014c60:	0073646e 	.word	0x0073646e
20014c64:	20202020 	.word	0x20202020
20014c68:	20202020 	.word	0x20202020
20014c6c:	20202020 	.word	0x20202020
20014c70:	20202020 	.word	0x20202020
20014c74:	20202020 	.word	0x20202020
20014c78:	20202020 	.word	0x20202020
20014c7c:	20202020 	.word	0x20202020
20014c80:	00002020 	.word	0x00002020
20014c84:	656e2041 	.word	0x656e2041
20014c88:	65702077 	.word	0x65702077
20014c8c:	61682074 	.word	0x61682074
20014c90:	65622073 	.word	0x65622073
20014c94:	62206e65 	.word	0x62206e65
20014c98:	216e726f 	.word	0x216e726f
20014c9c:	00000000 	.word	0x00000000
20014ca0:	61656c50 	.word	0x61656c50
20014ca4:	65206573 	.word	0x65206573
20014ca8:	7265746e 	.word	0x7265746e
20014cac:	6e206120 	.word	0x6e206120
20014cb0:	00656d61 	.word	0x00656d61
20014cb4:	20726f66 	.word	0x20726f66
20014cb8:	72756f79 	.word	0x72756f79
20014cbc:	77656e20 	.word	0x77656e20
20014cc0:	74657020 	.word	0x74657020
20014cc4:	0000003a 	.word	0x0000003a
20014cc8:	676e6f43 	.word	0x676e6f43
20014ccc:	75746172 	.word	0x75746172
20014cd0:	6974616c 	.word	0x6974616c
20014cd4:	21736e6f 	.word	0x21736e6f
20014cd8:	00000000 	.word	0x00000000
20014cdc:	65766168 	.word	0x65766168
20014ce0:	6d616e20 	.word	0x6d616e20
20014ce4:	79206465 	.word	0x79206465
20014ce8:	2072756f 	.word	0x2072756f
20014cec:	3a746570 	.word	0x3a746570
20014cf0:	00000000 	.word	0x00000000
20014cf4:	00007325 	.word	0x00007325
20014cf8:	74616857 	.word	0x74616857
20014cfc:	65726220 	.word	0x65726220
20014d00:	69206465 	.word	0x69206465
20014d04:	73252073 	.word	0x73252073
20014d08:	00000000 	.word	0x00000000
20014d0c:	69207325 	.word	0x69207325
20014d10:	20612073 	.word	0x20612073
20014d14:	002e7325 	.word	0x002e7325
20014d18:	636c6557 	.word	0x636c6557
20014d1c:	20656d6f 	.word	0x20656d6f
20014d20:	6b636162 	.word	0x6b636162
20014d24:	00000021 	.word	0x00000021
20014d28:	6d207325 	.word	0x6d207325
20014d2c:	65737369 	.word	0x65737369
20014d30:	6f792064 	.word	0x6f792064
20014d34:	00002e75 	.word	0x00002e75
20014d38:	64656546 	.word	0x64656546
20014d3c:	00000000 	.word	0x00000000
20014d40:	79616c50 	.word	0x79616c50
20014d44:	00000000 	.word	0x00000000
20014d48:	20747550 	.word	0x20747550
20014d4c:	73206f74 	.word	0x73206f74
20014d50:	7065656c 	.word	0x7065656c
20014d54:	00000000 	.word	0x00000000
20014d58:	63656843 	.word	0x63656843
20014d5c:	7453206b 	.word	0x7453206b
20014d60:	73757461 	.word	0x73757461
20014d64:	00000000 	.word	0x00000000
20014d68:	65766153 	.word	0x65766153
20014d6c:	00000000 	.word	0x00000000
20014d70:	62617243 	.word	0x62617243
20014d74:	00000000 	.word	0x00000000
20014d78:	63696e55 	.word	0x63696e55
20014d7c:	006e726f 	.word	0x006e726f

20014d80 <_global_impure_ptr>:
20014d80:	20014dd0                                .M. 

20014d84 <_init>:
20014d84:	b5f8      	push	{r3, r4, r5, r6, r7, lr}
20014d86:	bf00      	nop
20014d88:	bcf8      	pop	{r3, r4, r5, r6, r7}
20014d8a:	bc08      	pop	{r3}
20014d8c:	469e      	mov	lr, r3
20014d8e:	4770      	bx	lr

20014d90 <__init_array_start>:
20014d90:	2001495d 	.word	0x2001495d

20014d94 <__frame_dummy_init_array_entry>:
20014d94:	200142b5                                .B. 

20014d98 <_fini>:
20014d98:	b5f8      	push	{r3, r4, r5, r6, r7, lr}
20014d9a:	bf00      	nop
20014d9c:	bcf8      	pop	{r3, r4, r5, r6, r7}
20014d9e:	bc08      	pop	{r3}
20014da0:	469e      	mov	lr, r3
20014da2:	4770      	bx	lr

20014da4 <__fini_array_start>:
20014da4:	20014291 	.word	0x20014291
